; Function Attrs: mustprogress nofree norecurse nosync nounwind memory(readwrite, inaccessiblemem: none) uwtable
define noundef double @_ZNK9MeshGraph6Area3DEv(ptr nocapture noundef nonnull readonly align 8 dereferenceable(80) %0) local_unnamed_addr #18 align 2 {
  %2 = getelementptr inbounds i8, ptr %0, i64 24
  %.sroa.06.09 = load ptr, ptr %2, align 8
  %.not10 = icmp eq ptr %.sroa.06.09, null
  br i1 %.not10, label %._crit_edge, label %.lr.ph

.lr.ph:                                           ; preds = %1, %_ZNK9FaceGroup6Area3DEv.exit
  %.sroa.06.012 = phi ptr [ %.sroa.06.0, %_ZNK9FaceGroup6Area3DEv.exit ], [ %.sroa.06.09, %1 ]
  %.011 = phi double [ %11, %_ZNK9FaceGroup6Area3DEv.exit ], [ 0.000000e+00, %1 ]
  %3 = getelementptr inbounds i8, ptr %.sroa.06.012, i64 16
  %4 = load ptr, ptr %3, align 8
  %5 = getelementptr inbounds i8, ptr %4, i64 120
  %6 = load i8, ptr %5, align 8
  %7 = and i8 %6, 1
  %.not.i = icmp eq i8 %7, 0
  br i1 %.not.i, label %_ZNK9FaceGroup6Area3DEv.exit, label %8

8:                                                ; preds = %.lr.ph
  tail call void @_ZNK9FaceGroup11UpdateCacheEv(ptr noundef nonnull align 8 dereferenceable(192) %4)
  br label %_ZNK9FaceGroup6Area3DEv.exit

_ZNK9FaceGroup6Area3DEv.exit:                     ; preds = %.lr.ph, %8
  %9 = getelementptr inbounds i8, ptr %4, i64 136
  %10 = load double, ptr %9, align 8
  %11 = fadd double %.011, %10
  %.sroa.06.0 = load ptr, ptr %.sroa.06.012, align 8
  %.not = icmp eq ptr %.sroa.06.0, null
  br i1 %.not, label %._crit_edge, label %.lr.ph

._crit_edge:                                      ; preds = %_ZNK9FaceGroup6Area3DEv.exit, %1
  %.0.lcssa = phi double [ 0.000000e+00, %1 ], [ %11, %_ZNK9FaceGroup6Area3DEv.exit ]
  ret double %.0.lcssa
}